(irefer
Lang
p0
(dp1
S'_word2index'
p2
(dp3
Vuninterested
p4
I1026
sVall
p5
I145
sVfarsighted
p6
I461
sVliar
p7
I81
sVbroke
p8
I51
sVchinese
p9
I757
sVdrained
p10
I1024
sVsunk
p11
I125
sVsomeone
p12
I852
sVasian
p13
I398
sVgrateful
p14
I508
sVhappy,
p15
I468
sVoldest
p16
I492
sVsaved
p17
I215
sVchildren
p18
I733
sVresourceful
p19
I583
sVattacked
p20
I971
sVlooking
p21
I689
sVattentive
p22
I347
sVremarkable
p23
I821
sVcollege
p24
I723
sVeverything
p25
I756
sVparis
p26
I255
sVconcerned
p27
I351
sVsweetest
p28
I947
sVyoung
p29
I134
sVcharge
p30
I626
sVdissatisfied
p31
I678
sVunder
p32
I883
sVsorry
p33
I67
sVenjoying
p34
I1036
sVfriendly
p35
I860
sVsinking
p36
I413
sVme
p37
I609
sVpuzzled
p38
I183
sVvery
p39
I292
sVfat
p40
I6
sVbegging
p41
I549
sVsalesperson
p42
I760
sVtelling
p43
I823
sVpracticing
p44
I1004
sVsurgeon
p45
I587
sVcourageous
p46
I816
sVuncomfortable
p47
I779
sVcool
p48
I218
sVnowhere
p49
I1003
sVbaking
p50
I82
sVdie
p51
I227
sVbrother
p52
I703
sVleader
p53
I824
sVgullible
p54
I252
sVunrelated
p55
I636
sVliars
p56
I789
sVteam
p57
I309
sVsmall
p58
I402
sVemployees
p59
I1050
sVrelated
p60
I795
sVbrave
p61
I400
sVmethodical
p62
I475
sVtired
p63
I70
sVbleeding
p64
I237
sVtea
p65
I473
sVyourself
p66
I1052
sVjapanese
p67
I338
sVpast
p68
I630
sVfabulous
p69
I735
sVtraveling
p70
I917
sVlawyer
p71
I596
sVgrowing
p72
I988
sVpatient
p73
I179
sVhelpless
p74
I509
sVaggressive
p75
I781
sVquite
p76
I580
sVeven
p77
I122
sVcaptain
p78
I586
sVstood
p79
I136
sVruthless
p80
I277
sVbusy,
p81
I350
sVwrecked
p82
I1013
sVcooking
p83
I573
sVwitnesses
p84
I925
sVwaiting
p85
I419
sVtwins
p86
I216
sVundecided
p87
I916
sVhypocritical
p88
I1030
sVresilient
p89
I384
sVnew
p90
I259
sVcannibals
p91
I790
sVbad-mannered
p92
I920
sVteachers
p93
I610
sVsupporting
p94
I855
sVoutgoing
p95
I436
sVfull
p96
I24
sVhero
p97
I80
sVdisobeying
p98
I1037
sVassertive
p99
I739
sVhungover
p100
I254
sVmen
p101
I121
sVdisposable
p102
I864
sVfrench
p103
I78
sVunderstanding
p104
I1043
sVwater
p105
I840
sVdressed
p106
I806
sVslow
p107
I659
sVfree
p108
I23
sValone
p109
I47
sVstrong
p110
I114
sVteacher
p111
I341
sVsending
p112
I969
sVgreat
p113
I799
sVhunting
p114
I932
sVthirty
p115
I115
sVcanadian
p116
I434
sVhealthy
p117
I165
sVinvolved
p118
I257
sVvegetarian
p119
I496
sVstudied
p120
I539
sVguilty
p121
I479
sVincorrigible
p122
I943
sVcreepy
p123
I428
sVleaving
p124
I171
sVtv
p125
I594
sVprude
p126
I522
sVheartbroken
p127
I566
sVweird
p128
I327
sVstudies
p129
I710
sVbruised
p130
I894
sVastute
p131
I899
sVdisagreeing
p132
I910
sVcontrol
p133
I724
sVswearing
p134
I901
sVretired
p135
I186
sVfamily
p136
I505
sVdanger
p137
I371
sVsuddenly
p138
I854
sVmelons
p139
I602
sVdisgusting
p140
I817
sVfake
p141
I714
sVarmed
p142
I48
sVstanding
p143
I515
sVcheating
p144
I646
sVfrom
p145
I465
sVspoke
p146
I707
sVworking
p147
I206
sVhomesick
p148
I253
sVsuper
p149
I701
sVangry
p150
I212
sVplastered
p151
I380
sVonly
p152
I578
sVflabby
p153
I89
sVfrance
p154
I561
sVmusic
p155
I847
sVcalm
p156
I19
sVgorgeous
p157
I736
sVobstinate
p158
I705
sVaustralian
p159
I794
sVtype
p160
I530
sVis
p161
I40
sVtoday
p162
I464
sVseparated
p163
I633
sVclever
p164
I426
sVpretty
p165
I431
sVon
p166
I177
sVsuccessful
p167
I490
sVnaive
p168
I324
sVmusician
p169
I445
sVsister
p170
I597
sVhurt
p171
I265
sVdowntown
p172
I843
sVignorant
p173
I1031
sVadult
p174
I235
sVashamed
p175
I147
sVglad
p176
I25
sVwhisky
p177
I537
sVtown
p178
I412
sVanimals
p179
I603
sVdivorced
p180
I241
sVtokyo
p181
I467
sVunrealistic
p182
I754
sVavoiding
p183
I888
sVsounded
p184
I599
sVshrieked
p185
I299
sVworn
p186
I293
sVoffended
p187
I268
sVdizzy
p188
I765
sVthin
p189
I34
sValready
p190
I672
sVmaking
p191
I472
sVclosing
p192
I928
sVmy
p193
I529
sVsomething
p194
I959
sVbeautiful
p195
I349
sVstubborn
p196
I282
sVcrazy
p197
I52
sVbarbarians
p198
I977
sVembarrassing
p199
I1021
sVthirsty
p200
I199
sVpooped
p201
I105
sVdistracted
p202
I660
sVawesome
p203
I525
sVconfused
p204
I238
sVagent
p205
I236
sVunbiased
p206
I290
sVpulling
p207
I809
sVincredible
p208
I819
sVsharp
p209
I295
sVunconvinced
p210
I591
sVcounting
p211
I694
sVunforgettable
p212
I991
sV!
p213
I9
sVpsyched
p214
I181
sVobnoxious
p215
I744
sVcomfortable
p216
I554
sVbankrupt
p217
I435
sVawkward
p218
I498
sVrather
p219
I581
sVnuts
p220
I221
sVcomedians
p221
I617
sVfortunate
p222
I742
sVunlucky
p223
I203
sVimmune
p224
I95
sVhot
p225
I74
sVwinners
p226
I420
sVfools
p227
I629
sVsurvivors
p228
I634
sVscaring
p229
I822
sVspeaks
p230
I667
sVtruthful
p231
I289
sVbadly
p232
I837
sVstaying
p233
I194
sVokay
p234
I29
sVrude
p235
I222
sVinformation
p236
I1041
sVfreezing
p237
I250
sVshutterbug
p238
I671
sVdisgusted
p239
I358
sVwrong
p240
I296
sVproductive
p241
I820
sVmad
p242
I176
sVcoming
p243
I138
sVgardeners
p244
I622
sVconcentrating
p245
I763
sVfascinating
p246
I891
sVman
p247
I46
sVa
p248
I44
sVportuguese
p249
I953
sVshort
p250
I378
sVelusive
p251
I527
sVremember
p252
I211
sVfollowing
p253
I1000
sVloud
p254
I658
sVretired,
p255
I699
sVhere,
p256
I625
sVcomplaining
p257
I909
sVso
p258
I192
sVammo
p259
I952
sVgoodbye
p260
I706
sVfurious
p261
I164
sVtall
p262
I33
sVcrafty
p263
I427
sVimagining
p264
I1017
sVcute
p265
I305
sVlifeguards
p266
I726
sVhelp
p267
I531
sVover
p268
I365
sVsatisfied
p269
I385
sVoutraged
p270
I269
sVnaughty
p271
I637
sVthrough
p272
I200
sVcommitted
p273
I618
sVspontaneous
p274
I584
sVcold
p275
I20
sVstill
p276
I489
sVtalkative
p277
I746
sVstabbed
p278
I600
sVarrogant
p279
I642
sVperfect
p280
I575
sVgroup
p281
I405
sVfit
p282
I7
sVnearsighted
p283
I570
sVterrorists
p284
I979
sVamazing
p285
I523
sVhousewife
p286
I544
sVwinning
p287
I205
sVbetter
p288
I83
sVwriters
p289
I871
sVstalled
p290
I416
sVfarmer
p291
I230
sVintimidated
p292
I912
sVholiday
p293
I483
sVjournalists
p294
I804
sVoutside
p295
I605
sVfool
p296
I174
sVthem
p297
I614
sVgood
p298
I42
sVmotivated
p299
I375
sVdevastated
p300
I457
sVunemployed
p301
I494
sVsafe
p302
I30
sVspeechless
p303
I728
sVunarmed
p304
I576
sVlunch
p305
I679
sVtouching
p306
I897
sVhurting
p307
I818
sVthey
p308
I301
sVwealthy
p309
I204
sVnot
p310
I175
sVprejudiced
p311
I485
sVnow
p312
I249
sVadventurous
p313
I547
sVeasily
p314
I664
sValways
p315
I673
sVdeluding
p316
I1034
sVconscientious
p317
I929
sVrealistic
p318
I382
sVintrigued
p319
I372
sVcareless
p320
I644
sVreasonable
p321
I487
sVaddicted
p322
I232
sVscolded
p323
I437
sVinterfering
p324
I567
sVisn't
p325
I499
sVluck
p326
I167
sVstalling
p327
I656
sVengland
p328
I684
sVrestless
p329
I276
sVweight
p330
I771
sVdoing
p331
I458
sVhard
p332
I540
sVstronger
p333
I700
sVdedicated
p334
I619
sVstarted
p335
I829
sVcelebrating
p336
I551
sVcatching
p337
I550
sVimpossible
p338
I886
sVclassmates
p339
I717
sVcalling
p340
I954
sVsalesman
p341
I446
sVspecial
p342
I415
sVout
p343
I294
sVanxious
p344
I406
sVemotionally
p345
I1023
sVdriving
p346
I158
sVpsychic
p347
I182
sVsurrounded
p348
I729
sVmeditating
p349
I474
sVdehydrated
p350
I455
sVstudying
p351
I881
sVinvestigation
p352
I1047
sVdelusional
p353
I848
sVrational
p354
I273
sVhilarious
p355
I812
sVactresses
p356
I811
sVremodeling
p357
I488
sVcorrect
p358
I154
sVred
p359
I898
sVimpolitely
p360
I966
sVturning
p361
I882
sVpathetic
p362
I653
sVtense
p363
I747
sVcars
p364
I335
sVundressing
p365
I493
sVgreedy
p366
I90
sVspies
p367
I403
sVsloshed
p368
I191
sVcompletely
p369
I1002
sVrebel
p370
I260
sVimpulsive
p371
I369
sVbeginning
p372
I844
sVprincess
p373
I893
sVheroic
p374
I225
sVdrowning
p375
I242
sVdrinking
p376
I839
sVcured
p377
I53
sVdiabetic
p378
I339
sVcontented
p379
I353
sVbritish
p380
I328
sVhonest
p381
I92
sVterribly
p382
I856
sVamerican
p383
I337
sVhopeless
p384
I737
sVtempting
p385
I939
sVbulgaria
p386
I767
sVcooperating
p387
I555
sVsouth
p388
I802
sVfirst
p389
I57
sVblind
p390
I50
sVpromoted
p391
I834
sVromania
p392
I685
sV17,
p393
I140
sVsurviving
p394
I389
sVdumbfounded
p395
I668
sVpowerful
p396
I270
sVtrusting
p397
I948
sVawfully
p398
I761
sVembarrassed
p399
I557
sVdone
p400
I21
sVcolombia
p401
I768
sVsober
p402
I66
sVchubby
p403
I85
sVsounds
p404
I538
sVopen
p405
I510
sVtomorrow
p406
I936
sVengineer
p407
I548
sVyou're
p408
I126
sVkiller
p409
I491
sVsilent
p410
I868
sVstrict
p411
I113
sVtotally
p412
I778
sVslept
p413
I665
sVcallous
p414
I526
sVneeded
p415
I727
sVattack
p416
I884
sVwonderful
p417
I750
sVmaster
p418
I825
sVtoo
p419
I141
sVsaint
p420
I261
sVticklish
p421
I288
sVdouble-parked
p422
I984
sVinfected
p423
I869
sVperfectly
p424
I914
sVbitter
p425
I478
sVthick-headed
p426
I828
sVspeaking
p427
I280
sVlow
p428
I559
sVilliterate
p429
I470
sVstuffed
p430
I195
sVtrapped
p431
I417
sVhousesitting
p432
I687
sVdoomed
p433
I315
sVtom
p434
I363
sVsync
p435
I411
sVcops
p436
I304
sVpredictable
p437
I1009
sVsomewhat
p438
I853
sVdoctors
p439
I604
sVwasted
p440
I116
sVflowers
p441
I785
sVconvinced
p442
I354
sVwide
p443
I497
sVkind
p444
I75
sVoveremotional
p445
I987
sVswindled
p446
I541
sV19
p447
I3
sVboring
p448
I424
sVcoward
p449
I228
sVphotogenic
p450
I661
sVbed
p451
I97
sVtourists
p452
I968
sVperfectionist
p453
I902
sVsilly
p454
I325
sVnervous
p455
I574
sVlight
p456
I918
sVcards
p457
I938
sVdumb
p458
I263
sVfeeling
p459
I558
sVgerman,
p460
I982
sVgathering
p461
I1040
sVsurrendered
p462
I443
sVremained
p463
I867
sVboston
p464
I370
sVpro
p465
I533
sVapproaching
p466
I967
sVtidy
p467
I35
sVmine
p468
I307
sVsad
p469
I11
sVhappily
p470
I861
sVtalking
p471
I197
sValike
p472
I788
sVcleaned
p473
I552
sVclose
p474
I635
sVsells
p475
I334
sVthemselves
p476
I1048
sVsaw
p477
I755
sVorders
p478
I1038
sVsharp-witted
p479
I827
sVsings
p480
I500
sVafraid
p481
I343
sVnarrow-minded
p482
I996
sVdancing
p483
I156
sVefficient
p484
I1010
sVoverreacting
p485
I697
sVself
p486
I1028
sVthat
p487
I612
sVforeigner
p488
I543
sVthorough
p489
I286
sVdefenseless
p490
I798
sVblushing
p491
I643
sVtrespassing
p492
I1032
sVuseless
p493
I418
sVsnob
p494
I423
sVgreen
p495
I896
sVkorean
p496
I79
sVgreatest
p497
I946
sVflattered
p498
I621
sVcloser
p499
I973
sVsure
p500
I32
sVpain
p501
I410
sVeasygoing
p502
I359
sVshall
p503
I226
sVthrilled
p504
I287
sVperceptive
p505
I1022
sVuninsured
p506
I391
sVeight
p507
I130
sVcracking
p508
I556
sVnothing
p509
I536
sValarmed
p510
I571
sVextremely
p511
I764
sVgrumpy
p512
I429
sVundamaged
p513
I793
sVsinger
p514
I743
sVreleased
p515
I787
sVupset
p516
I326
sVhungry
p517
I94
sVnewcomers
p518
I627
sVplaying
p519
I937
sVgiving
p520
I624
sVhoneymooning
p521
I875
sVdefinitely
p522
I1033
sVclean
p523
I401
sVjittery
p524
I169
sVskinny
p525
I110
sVvoting
p526
I393
sVaway
p527
I879
sVlying
p528
I62
sVfussy
p529
I58
sVprecise
p530
I532
sVsaying
p531
I386
sVshot
p532
I297
sVabsent-minded
p533
I1051
sVstunned
p534
I196
sVmorons
p535
I520
sVrussian
p536
I711
sVbright
p537
I425
sVtraitor
p538
I738
sVsoldiers
p539
I877
sVchicken
p540
I153
sVfine
p541
I22
sVpartners
p542
I512
sVbusy
p543
I18
sVparanoid
p544
I696
sVcousins
p545
I407
sVenough
p546
I482
sVunhappy
p547
I202
sVshould
p548
I440
sVupstairs
p549
I291
sVidiots
p550
I503
sVgoing
p551
I59
sVtouched
p552
I201
sVrich
p553
I124
sVthieves
p554
I923
sVwearing
p555
I1014
sVsued
p556
I300
sVhit
p557
I8
sVhungarian
p558
I444
sVwatching
p559
I593
sVzambia
p560
I563
sVbetween
p561
I675
sVcranky
p562
I224
sVlucky
p563
I61
sVtruly
p564
I588
sVfamous
p565
I87
sVkillers
p566
I807
sVnearly
p567
I876
sVwords
p568
I865
sVprobably
p569
I1008
sVnasty
p570
I132
sVunethical
p571
I748
sVhim
p572
I298
sVunprejudiced
p573
I885
sVfreaking
p574
I681
sVenemy
p575
I652
sVcontagious
p576
I454
sVartist
p577
I345
sVseemed
p578
I1025
sVshy
p579
I12
sVmarried
p580
I172
sVworried
p581
I207
sVwatched
p582
I762
sVdepressed
p583
I355
sVbad
p584
I127
sVstupid
p585
I432
sVcroatia
p586
I683
sVshe
p587
I117
sVinvincible
p588
I849
sVcourteous
p589
I741
sVears
p590
I233
sVinsane
p591
I430
sVguessing
p592
I770
sVset
p593
I146
sVfair
p594
I219
sVpersuaded
p595
I775
sVunmarried
p596
I392
sVorphan
p597
I346
sVwe
p598
I119
sVdemented
p599
I647
sVasleep
p600
I223
sVare
p601
I120
sVdesperate
p602
I356
sVresigning
p603
I632
sVescaping
p604
I507
sVsmiling
p605
I607
sVbest
p606
I517
sVbrazil
p607
I560
sVsaid
p608
I535
sVexpert
p609
I376
sVmanaging
p610
I258
sVfascinated
p611
I462
sVwell-liked
p612
I662
sVslapped
p613
I442
sVbehind
p614
I451
sVclosed
p615
I313
sVhorrible
p616
I650
sVprogress
p617
I907
sVreading
p618
I184
sVfrustrated
p619
I919
sVapples
p620
I930
sVavailable
p621
I348
sVlazy
p622
I28
sVreplaceable
p623
I582
sVjobs
p624
I676
sVunconscious
p625
I859
sVfearless
p626
I246
sVcolor-blind
p627
I553
sVweak
p628
I37
sVboss
p629
I284
sVgood-looking
p630
I961
sVhere
p631
I43
sVpoisoning
p632
I945
sVsingers
p633
I713
sVcousin
p634
I670
sVkilling
p635
I690
sVcome
p636
I441
sVcop
p637
I45
sVprotecting
p638
I980
sVrecovered
p639
I1006
sVlast
p640
I518
sVtalented
p641
I657
sVinfluential
p642
I752
sVquitter
p643
I476
sVill
p644
I10
sVquiet
p645
I63
sVagainst
p646
I447
sVsensitive
p647
I387
sVloudly
p648
I786
sVcanadians
p649
I615
sVconceited
p650
I740
sVduty
p651
I178
sVamong
p652
I926
sVcantankerous
p653
I942
sVtough
p654
I71
sVdrunk
p655
I54
sVsweet
p656
I655
sVhardworking
p657
I565
sVteasing
p658
I198
sVactive
p659
I395
sVlearning
p660
I845
sVbasque
p661
I905
sVloaded
p662
I99
sVhumming
p663
I166
sVfamished
p664
I245
sVexpensive
p665
I791
sVturkey
p666
I562
sVlate
p667
I27
sVfinally
p668
I931
sVaren't
p669
I521
sVwest
p670
I721
sVunderage
p671
I981
sVvacation
p672
I577
sV.
p673
I4
sVcowards
p674
I796
sVconfident
p675
I352
sVstartled
p676
I709
sVdependable
p677
I456
sVthumbs
p678
I449
sVunsociable
p679
I784
sVflexible
p680
I992
sVtallest
p681
I638
sVincompetent
p682
I751
sVhome,
p683
I362
sVobese
p684
I377
sVshopping
p685
I975
sVcrying
p686
I396
sVboth
p687
I616
sVwith
p688
I608
sVsufficient
p689
I1029
sVintelligent
p690
I753
sVadaptable
p691
I342
sVfinished
p692
I248
sVawake
p693
I49
sVopportunistic
p694
I985
sVchess
p695
I1001
sVcareful
p696
I151
sVpaying
p697
I104
sVtonight
p698
I906
sVhandling
p699
I803
sVleft-handed
p700
I569
sVgentle
p701
I397
sVreliable
p702
I275
sVugly
p703
I36
sVunbelievably
p704
I1046
sVsmart
p705
I133
sVfun
p706
I129
sVinvestigating
p707
I1019
sVinvited
p708
I528
sVdownsizing
p709
I718
sVbluffing
p710
I692
sValmost
p711
I870
sVsincere
p712
I190
sVengaged
p713
I159
sVit
p714
I448
sVdubious
p715
I777
sVsleeping
p716
I279
sVpigeon-toed
p717
I858
sVeighteen
p718
I243
sVfrantic
p719
I163
sVoptimistic
p720
I484
sVin
p721
I96
sVready
p722
I64
sVpartner
p723
I704
sVwisely
p724
I708
sVoverworked
p725
I776
sVbreakfast
p726
I1016
sVfunny
p727
I321
sVdifferent
p728
I357
sVresentful
p729
I383
sVfate
p730
I940
sVdoctor
p731
I229
sVthings
p732
I1018
sVsame
p733
I519
sVgentlemen
p734
I623
sVvulnerable
p735
I970
sVbabies
p736
I502
sVazerbaijani
p737
I542
sVstrangers
p738
I935
sVcouple
p739
I504
sVfairly
p740
I680
sVused
p741
I453
sVoff-duty
p742
I267
sVslightly
p743
I915
sVsingapore
p744
I841
sVagain
p745
I815
sVevacuating
p746
I978
sVbald
p747
I17
sVoverweight
p748
I850
sVunsympathetic
p749
I997
sVevil
p750
I264
sVrunning
p751
I331
sVfruit
p752
I439
sVmoving
p753
I102
sVstudent
p754
I340
sVdiscouraged
p755
I911
sVjealous
p756
I168
sVchanging
p757
I797
sVhomeschooled
p758
I686
sVtimid
p759
I69
sVi'm
p760
I2
sVfasting
p761
I161
sVoff
p762
I731
sVpicky
p763
I654
sVmasochist
p764
I545
sVblood
p765
I972
sVi
p766
I14
sVhumble
p767
I93
sVwell
p768
I38
sVfighting
p769
I247
sVoptions
p770
I957
sVconsiderate
p771
I889
sVidiot
p772
I640
sVfashionable
p773
I892
sVstarved
p774
I193
sVenglish
p775
I329
sVthe
p776
I283
sVyours
p777
I72
sVtemperamental
p778
I989
sVstressed
p779
I958
sVdieting
p780
I157
sVtaller
p781
I139
sVresponsible
p782
I1005
sVphotographer
p783
I832
sVjust
p784
I373
sVbeing
p785
I452
sVable
p786
I998
sVshivering
p787
I745
sVhalf
p788
I722
sVsleepy
p789
I111
sVunfair
p790
I433
sVmistaken
p791
I651
sVignoring
p792
I924
sVshocked
p793
I189
sVhuman
p794
I77
sVlove
p795
I409
sVoverconfident
p796
I986
sVguys
p797
I792
sVconservative
p798
I872
sVhalfway
p799
I874
sVgenerous
p800
I993
sVlike
p801
I805
sVgrounded
p802
I251
sVobservant
p803
I379
sVthinking
p804
I285
sVhated
p805
I131
sVseems
p806
I333
sVexercising
p807
I460
sVrealize
p808
I611
sVpressing
p809
I962
sVobedient
p810
I511
sVattractive
p811
I782
sVinnocent
p812
I256
sVwet
p813
I13
sVeast
p814
I720
sVexcited
p815
I160
sVreformed
p816
I274
sVamusing
p817
I524
sVreal
p818
I698
sVstarving
p819
I281
sVdark-skinned
p820
I921
sVambitious
p821
I344
sVpresentable
p822
I913
sVchecking
p823
I956
sVbig
p824
I128
sVpunctual
p825
I272
sVtom's
p826
I669
sVthirty-one
p827
I783
sVearly
p828
I56
sVintroverted
p829
I568
sVlistening
p830
I374
sVtaking
p831
I730
sVunique
p832
I716
sVdisappointed
p833
I677
sVswims
p834
I501
sVmoody
p835
I323
sVartists
p836
I712
sVskeptical
p837
I1012
sVracists
p838
I887
sVincredibly
p839
I904
sVlost
p840
I123
sVfinnish
p841
I142
sVpanicking
p842
I774
sVflabbergasted
p843
I766
sVunnecessary
p844
I964
sVcarnations
p845
I863
sVpopular
p846
I180
sVstylish
p847
I951
sVsecurity
p848
I955
sVfoolish
p849
I330
sVitalian
p850
I143
sVgaining
p851
I842
sVtraitors
p852
I715
sVright
p853
I65
sVold
p854
I41
sVjoking
p855
I98
sVdoll
p856
I421
sVczech
p857
I846
sVcanadian,
p858
I759
sVscared
p859
I481
sVdeaf
p860
I262
sVback
p861
I16
sVdead
p862
I209
sVirreplaceable
p863
I769
sVexperienced
p864
I800
sVwarmer
p865
I974
sVrespect
p866
I613
sVhome
p867
I26
sVscares
p868
I663
sVirresistible
p869
I944
sVgross
p870
I322
sVfriend
p871
I595
sVcharges
p872
I963
sVunambitious
p873
I590
sVcontributing
p874
I873
sVsinging
p875
I830
sVabsolutely
p876
I903
sVnormal
p877
I103
sVcreative
p878
I239
sVmodest
p879
I592
sVarguing
p880
I572
sVforgiven
p881
I649
sVstopped
p882
I831
sVclaustrophobic
p883
I838
sVdating
p884
I314
sVadorable
p885
I639
sVquitting
p886
I513
sV?
p887
I983
sVsympathetic
p888
I585
sVbiased
p889
I312
sVeating
p890
I86
sVschedule
p891
I808
sVkyoto
p892
I466
sVhighly
p893
I960
sVrefused
p894
I302
sVhung
p895
I364
sVcriminals
p896
I999
sVsensible
p897
I836
sVterrified
p898
I390
sVlosing
p899
I101
sVfinicky
p900
I162
sVshaken
p901
I108
sVhiding
p902
I91
sVbaffled
p903
I149
sVabout
p904
I546
sVok
p905
I5
sVvolunteering
p906
I702
sVgetting
p907
I564
sVpurist
p908
I231
sVfiring
p909
I463
sVinviting
p910
I688
sVtrustworthy
p911
I589
sVdinner
p912
I933
sVimportant
p913
I367
sVneighbor
p914
I780
sVblackmailed
p915
I994
sVmean
p916
I266
sVderanged
p917
I734
sVseeing
p918
I851
sVharassed
p919
I833
sVwasting
p920
I941
sVprisoners
p921
I631
sVblessed
p922
I150
sVarticulate
p923
I814
sVpersevering
p924
I579
sVdown
p925
I719
sVprisoner
p926
I813
sVdreaming
p927
I695
sVowners
p928
I732
sVquickly
p929
I758
sVyour
p930
I394
sVsmells
p931
I336
sVfired
p932
I320
sVsunglasses
p933
I1015
sVimpressed
p934
I368
sVamerica
p935
I682
sVher
p936
I438
sVsneaky
p937
I112
sVvegetables
p938
I965
sVthere
p939
I404
sVcultured
p940
I240
sVkidding
p941
I170
sVstuck
p942
I68
sVlonely
p943
I100
sVracist
p944
I480
sVwe're
p945
I73
sVmalicious
p946
I1020
sVforward
p947
I949
sVpunished
p948
I835
sVunenthusiastic
p949
I857
sVbored
p950
I213
sVwar
p951
I311
sVhappy
p952
I214
sVtight
p953
I878
sVmiserable
p954
I773
sVnorth
p955
I801
sVamericans
p956
I1044
sVrelaxed
p957
I185
sVforgetful
p958
I361
sVdirect
p959
I900
sVsophisticated
p960
I1042
sVboys
p961
I303
sValive
p962
I399
sVundressed
p963
I995
sVastonished
p964
I450
sVhelpful
p965
I950
sVtrying
p966
I317
sVdownstairs
p967
I459
sVbossy
p968
I318
sVbuying
p969
I84
sVhe
p970
I39
sVthey're
p971
I210
sVwise
p972
I749
sVdangerous
p973
I772
sVinside
p974
I316
sVannoying
p975
I641
sVup
p976
I137
sVruined
p977
I107
sVcruel
p978
I319
sVsmashed
p979
I414
sVemotional
p980
I1011
sVproblem
p981
I810
sVsimilar
p982
I606
sVpowerless
p983
I381
sVskating
p984
I332
sVgone
p985
I306
sVcurt
p986
I208
sVadults
p987
I310
sVexhausted
p988
I360
sVcertain
p989
I152
sVarabs
p990
I308
sVsquinted
p991
I135
sVam
p992
I15
sVslowing
p993
I880
sVan
p994
I234
sVsingle
p995
I109
sVat
p996
I148
sVcurious
p997
I155
sVgraceful
p998
I598
sVshooting
p999
I278
sVnerd
p1000
I422
sVnewlyweds
p1001
I628
sVselfish
p1002
I187
sVfaithful
p1003
I244
sVdying
p1004
I55
sVno
p1005
I173
sVretiring
p1006
I514
sVfixing
p1007
I620
sVdisloyal
p1008
I648
sVpart-time
p1009
I1049
sVourselves
p1010
I1035
sVbragging
p1011
I693
sVinterested
p1012
I471
sVactors
p1013
I601
sVsick
p1014
I31
sVsoundly
p1015
I666
sVmathematics
p1016
I1027
sVyou
p1017
I217
sVreally
p1018
I486
sVcompany
p1019
I976
sVnice
p1020
I220
sVpoor
p1021
I76
sVscapegoat
p1022
I990
sVbrothers
p1023
I506
sVextroverted
p1024
I890
sVstudents
p1025
I516
sVwelcome
p1026
I534
sVpolite
p1027
I826
sVprepared
p1028
I271
sVhelping
p1029
I895
sVrested
p1030
I106
sVtrouble
p1031
I725
sVsmiled
p1032
I118
sVambidextrous
p1033
I674
sVcharming
p1034
I645
sVfriends
p1035
I408
sVchristians
p1036
I862
sVover-analyzing
p1037
I1007
sVapologizing
p1038
I908
sVfaster
p1039
I88
sVpractically
p1040
I1045
sVaustralians
p1041
I866
sVbaker
p1042
I144
sVtogether
p1043
I927
sVamused
p1044
I477
sVimpatient
p1045
I366
sVconsidering
p1046
I1039
sVloyal
p1047
I60
sVgood-natured
p1048
I922
sVtime
p1049
I691
sVserious
p1050
I188
sVsurprised
p1051
I388
sVstarting
p1052
I934
sVhaving
p1053
I469
sVuntalented
p1054
I495
ssS'_n_words'
p1055
I1053
sS'_index2word'
p1056
(dp1057
I0
S'SOS'
p1058
sI1
S'EOS'
p1059
sI2
g760
sI3
g447
sI4
g673
sI5
g905
sI6
g40
sI7
g282
sI8
g557
sI9
g213
sI10
g644
sI11
g469
sI12
g579
sI13
g813
sI14
g766
sI15
g992
sI16
g861
sI17
g747
sI18
g543
sI19
g156
sI20
g275
sI21
g400
sI22
g541
sI23
g108
sI24
g96
sI25
g176
sI26
g867
sI27
g667
sI28
g622
sI29
g234
sI30
g302
sI31
g1014
sI32
g500
sI33
g262
sI34
g189
sI35
g467
sI36
g703
sI37
g628
sI38
g768
sI39
g970
sI40
g161
sI41
g854
sI42
g298
sI43
g631
sI44
g248
sI45
g637
sI46
g247
sI47
g109
sI48
g142
sI49
g693
sI50
g390
sI51
g8
sI52
g197
sI53
g377
sI54
g655
sI55
g1004
sI56
g828
sI57
g389
sI58
g529
sI59
g551
sI60
g1047
sI61
g563
sI62
g528
sI63
g645
sI64
g722
sI65
g853
sI66
g402
sI67
g33
sI68
g942
sI69
g759
sI70
g63
sI71
g654
sI72
g777
sI73
g945
sI74
g225
sI75
g444
sI76
g1021
sI77
g794
sI78
g103
sI79
g496
sI80
g97
sI81
g7
sI82
g50
sI83
g288
sI84
g969
sI85
g403
sI86
g890
sI87
g565
sI88
g1039
sI89
g153
sI90
g366
sI91
g902
sI92
g381
sI93
g767
sI94
g517
sI95
g224
sI96
g721
sI97
g451
sI98
g855
sI99
g662
sI100
g943
sI101
g899
sI102
g753
sI103
g877
sI104
g697
sI105
g201
sI106
g1030
sI107
g977
sI108
g901
sI109
g995
sI110
g525
sI111
g789
sI112
g937
sI113
g411
sI114
g110
sI115
g115
sI116
g440
sI117
g587
sI118
g1032
sI119
g598
sI120
g601
sI121
g101
sI122
g77
sI123
g840
sI124
g553
sI125
g11
sI126
g408
sI127
g584
sI128
g824
sI129
g706
sI130
g507
sI131
g805
sI132
g570
sI133
g705
sI134
g29
sI135
g991
sI136
g79
sI137
g976
sI138
g243
sI139
g781
sI140
g393
sI141
g419
sI142
g841
sI143
g850
sI144
g1042
sI145
g5
sI146
g593
sI147
g175
sI148
g996
sI149
g903
sI150
g922
sI151
g696
sI152
g989
sI153
g540
sI154
g358
sI155
g997
sI156
g483
sI157
g780
sI158
g346
sI159
g713
sI160
g815
sI161
g761
sI162
g900
sI163
g719
sI164
g261
sI165
g117
sI166
g663
sI167
g326
sI168
g756
sI169
g524
sI170
g941
sI171
g124
sI172
g580
sI173
g1005
sI174
g296
sI175
g310
sI176
g242
sI177
g166
sI178
g651
sI179
g73
sI180
g846
sI181
g214
sI182
g347
sI183
g38
sI184
g618
sI185
g957
sI186
g135
sI187
g1002
sI188
g1050
sI189
g793
sI190
g712
sI191
g368
sI192
g258
sI193
g774
sI194
g233
sI195
g430
sI196
g534
sI197
g471
sI198
g658
sI199
g200
sI200
g272
sI201
g552
sI202
g547
sI203
g223
sI204
g309
sI205
g287
sI206
g147
sI207
g581
sI208
g986
sI209
g862
sI210
g971
sI211
g252
sI212
g150
sI213
g950
sI214
g952
sI215
g17
sI216
g86
sI217
g1017
sI218
g48
sI219
g594
sI220
g1020
sI221
g220
sI222
g235
sI223
g600
sI224
g562
sI225
g374
sI226
g503
sI227
g51
sI228
g449
sI229
g731
sI230
g291
sI231
g908
sI232
g322
sI233
g590
sI234
g994
sI235
g174
sI236
g205
sI237
g64
sI238
g204
sI239
g878
sI240
g940
sI241
g180
sI242
g375
sI243
g718
sI244
g1003
sI245
g664
sI246
g626
sI247
g769
sI248
g692
sI249
g312
sI250
g237
sI251
g802
sI252
g54
sI253
g148
sI254
g100
sI255
g26
sI256
g812
sI257
g118
sI258
g610
sI259
g90
sI260
g370
sI261
g420
sI262
g860
sI263
g458
sI264
g750
sI265
g171
sI266
g916
sI267
g742
sI268
g187
sI269
g270
sI270
g396
sI271
g1028
sI272
g825
sI273
g354
sI274
g816
sI275
g702
sI276
g329
sI277
g80
sI278
g999
sI279
g716
sI280
g427
sI281
g819
sI282
g196
sI283
g776
sI284
g629
sI285
g804
sI286
g489
sI287
g504
sI288
g421
sI289
g231
sI290
g206
sI291
g549
sI292
g39
sI293
g186
sI294
g343
sI295
g209
sI296
g240
sI297
g532
sI298
g572
sI299
g185
sI300
g556
sI301
g308
sI302
g894
sI303
g961
sI304
g436
sI305
g265
sI306
g985
sI307
g468
sI308
g990
sI309
g57
sI310
g987
sI311
g951
sI312
g889
sI313
g615
sI314
g884
sI315
g433
sI316
g974
sI317
g966
sI318
g968
sI319
g978
sI320
g932
sI321
g727
sI322
g870
sI323
g835
sI324
g168
sI325
g454
sI326
g516
sI327
g128
sI328
g380
sI329
g775
sI330
g849
sI331
g751
sI332
g984
sI333
g806
sI334
g475
sI335
g364
sI336
g931
sI337
g383
sI338
g67
sI339
g378
sI340
g754
sI341
g111
sI342
g691
sI343
g481
sI344
g821
sI345
g577
sI346
g597
sI347
g22
sI348
g621
sI349
g195
sI350
g81
sI351
g27
sI352
g675
sI353
g379
sI354
g442
sI355
g583
sI356
g602
sI357
g728
sI358
g239
sI359
g502
sI360
g988
sI361
g958
sI362
g683
sI363
g434
sI364
g895
sI365
g268
sI366
g1045
sI367
g913
sI368
g934
sI369
g371
sI370
g464
sI371
g137
sI372
g319
sI373
g784
sI374
g830
sI375
g299
sI376
g609
sI377
g684
sI378
g250
sI379
g803
sI380
g151
sI381
g983
sI382
g318
sI383
g729
sI384
g89
sI385
g269
sI386
g531
sI387
g647
sI388
g1051
sI389
g394
sI390
g898
sI391
g506
sI392
g596
sI393
g526
sI394
g930
sI395
g659
sI396
g686
sI397
g701
sI398
g13
sI399
g962
sI400
g61
sI401
g523
sI402
g58
sI403
g367
sI404
g939
sI405
g281
sI406
g344
sI407
g545
sI408
g1035
sI409
g795
sI410
g501
sI411
g435
sI412
g178
sI413
g36
sI414
g979
sI415
g342
sI416
g290
sI417
g431
sI418
g493
sI419
g85
sI420
g226
sI421
g856
sI422
g1000
sI423
g494
sI424
g448
sI425
g537
sI426
g164
sI427
g263
sI428
g123
sI429
g512
sI430
g591
sI431
g165
sI432
g585
sI433
g790
sI434
g116
sI435
g217
sI436
g95
sI437
g323
sI438
g936
sI439
g752
sI440
g548
sI441
g636
sI442
g613
sI443
g462
sI444
g558
sI445
g169
sI446
g341
sI447
g646
sI448
g714
sI449
g678
sI450
g964
sI451
g614
sI452
g785
sI453
g741
sI454
g576
sI455
g350
sI456
g677
sI457
g300
sI458
g331
sI459
g967
sI460
g807
sI461
g6
sI462
g611
sI463
g909
sI464
g162
sI465
g145
sI466
g892
sI467
g181
sI468
g15
sI469
g1053
sI470
g429
sI471
g1012
sI472
g191
sI473
g65
sI474
g349
sI475
g62
sI476
g643
sI477
g1044
sI478
g425
sI479
g121
sI480
g944
sI481
g859
sI482
g546
sI483
g293
sI484
g720
sI485
g311
sI486
g1018
sI487
g321
sI488
g357
sI489
g276
sI490
g167
sI491
g409
sI492
g16
sI493
g365
sI494
g301
sI495
g1054
sI496
g119
sI497
g443
sI498
g218
sI499
g325
sI500
g480
sI501
g834
sI502
g736
sI503
g550
sI504
g739
sI505
g136
sI506
g1023
sI507
g604
sI508
g14
sI509
g74
sI510
g405
sI511
g810
sI512
g542
sI513
g886
sI514
g1006
sI515
g143
sI516
g1025
sI517
g606
sI518
g640
sI519
g733
sI520
g535
sI521
g669
sI522
g126
sI523
g285
sI524
g817
sI525
g203
sI526
g414
sI527
g251
sI528
g708
sI529
g193
sI530
g160
sI531
g267
sI532
g530
sI533
g465
sI534
g1026
sI535
g608
sI536
g509
sI537
g177
sI538
g404
sI539
g120
sI540
g332
sI541
g446
sI542
g737
sI543
g488
sI544
g286
sI545
g764
sI546
g904
sI547
g313
sI548
g407
sI549
g41
sI550
g337
sI551
g336
sI552
g473
sI553
g627
sI554
g216
sI555
g387
sI556
g508
sI557
g399
sI558
g459
sI559
g428
sI560
g607
sI561
g154
sI562
g666
sI563
g560
sI564
g907
sI565
g657
sI566
g127
sI567
g324
sI568
g829
sI569
g700
sI570
g283
sI571
g510
sI572
g880
sI573
g83
sI574
g455
sI575
g280
sI576
g304
sI577
g672
sI578
g152
sI579
g924
sI580
g76
sI581
g219
sI582
g623
sI583
g19
sI584
g274
sI585
g888
sI586
g78
sI587
g45
sI588
g564
sI589
g911
sI590
g873
sI591
g210
sI592
g879
sI593
g559
sI594
g125
sI595
g871
sI596
g71
sI597
g170
sI598
g998
sI599
g184
sI600
g278
sI601
g1013
sI602
g139
sI603
g179
sI604
g439
sI605
g295
sI606
g982
sI607
g605
sI608
g688
sI609
g37
sI610
g93
sI611
g808
sI612
g487
sI613
g866
sI614
g297
sI615
g649
sI616
g687
sI617
g221
sI618
g273
sI619
g334
sI620
g1007
sI621
g498
sI622
g244
sI623
g734
sI624
g520
sI625
g256
sI626
g30
sI627
g518
sI628
g1001
sI629
g227
sI630
g68
sI631
g921
sI632
g603
sI633
g163
sI634
g228
sI635
g474
sI636
g55
sI637
g271
sI638
g681
sI639
g885
sI640
g772
sI641
g975
sI642
g279
sI643
g491
sI644
g320
sI645
g1034
sI646
g144
sI647
g599
sI648
g1008
sI649
g881
sI650
g616
sI651
g791
sI652
g575
sI653
g362
sI654
g763
sI655
g656
sI656
g327
sI657
g641
sI658
g254
sI659
g107
sI660
g202
sI661
g450
sI662
g612
sI663
g868
sI664
g314
sI665
g413
sI666
g1015
sI667
g230
sI668
g395
sI669
g826
sI670
g634
sI671
g238
sI672
g190
sI673
g315
sI674
g1033
sI675
g561
sI676
g624
sI677
g833
sI678
g31
sI679
g305
sI680
g740
sI681
g574
sI682
g935
sI683
g586
sI684
g328
sI685
g392
sI686
g758
sI687
g432
sI688
g910
sI689
g21
sI690
g635
sI691
g1049
sI692
g710
sI693
g1011
sI694
g211
sI695
g927
sI696
g544
sI697
g485
sI698
g818
sI699
g255
sI700
g333
sI701
g149
sI702
g906
sI703
g52
sI704
g723
sI705
g158
sI706
g260
sI707
g146
sI708
g724
sI709
g676
sI710
g129
sI711
g536
sI712
g836
sI713
g633
sI714
g141
sI715
g852
sI716
g832
sI717
g339
sI718
g709
sI719
g925
sI720
g814
sI721
g670
sI722
g788
sI723
g24
sI724
g133
sI725
g1031
sI726
g266
sI727
g415
sI728
g303
sI729
g348
sI730
g831
sI731
g762
sI732
g928
sI733
g18
sI734
g917
sI735
g69
sI736
g157
sI737
g384
sI738
g538
sI739
g99
sI740
g650
sI741
g589
sI742
g222
sI743
g514
sI744
g215
sI745
g787
sI746
g277
sI747
g363
sI748
g571
sI749
g972
sI750
g417
sI751
g682
sI752
g642
sI753
g690
sI754
g182
sI755
g477
sI756
g25
sI757
g9
sI758
g929
sI759
g858
sI760
g42
sI761
g398
sI762
g582
sI763
g245
sI764
g511
sI765
g188
sI766
g843
sI767
g386
sI768
g401
sI769
g863
sI770
g592
sI771
g330
sI772
g973
sI773
g954
sI774
g842
sI775
g595
sI776
g725
sI777
g715
sI778
g412
sI779
g47
sI780
g914
sI781
g75
sI782
g811
sI783
g827
sI784
g679
sI785
g441
sI786
g648
sI787
g515
sI788
g472
sI789
g56
sI790
g91
sI791
g665
sI792
g797
sI793
g513
sI794
g159
sI795
g60
sI796
g674
sI797
g757
sI798
g490
sI799
g113
sI800
g864
sI801
g955
sI802
g388
sI803
g699
sI804
g294
sI805
g801
sI806
g106
sI807
g566
sI808
g891
sI809
g207
sI810
g981
sI811
g356
sI812
g355
sI813
g926
sI814
g923
sI815
g745
sI816
g46
sI817
g140
sI818
g307
sI819
g208
sI820
g241
sI821
g23
sI822
g229
sI823
g43
sI824
g53
sI825
g418
sI826
g1027
sI827
g479
sI828
g426
sI829
g335
sI830
g875
sI831
g882
sI832
g783
sI833
g919
sI834
g391
sI835
g948
sI836
g897
sI837
g232
sI838
g883
sI839
g376
sI840
g105
sI841
g744
sI842
g851
sI843
g172
sI844
g372
sI845
g660
sI846
g857
sI847
g155
sI848
g353
sI849
g588
sI850
g748
sI851
g918
sI852
g12
sI853
g438
sI854
g138
sI855
g94
sI856
g382
sI857
g949
sI858
g717
sI859
g625
sI860
g35
sI861
g470
sI862
g1036
sI863
g845
sI864
g102
sI865
g568
sI866
g1041
sI867
g463
sI868
g410
sI869
g423
sI870
g711
sI871
g289
sI872
g798
sI873
g874
sI874
g799
sI875
g521
sI876
g567
sI877
g539
sI878
g953
sI879
g527
sI880
g993
sI881
g351
sI882
g361
sI883
g32
sI884
g416
sI885
g573
sI886
g338
sI887
g838
sI888
g183
sI889
g771
sI890
g1024
sI891
g246
sI892
g773
sI893
g373
sI894
g130
sI895
g1029
sI896
g495
sI897
g306
sI898
g359
sI899
g131
sI900
g959
sI901
g134
sI902
g453
sI903
g876
sI904
g839
sI905
g661
sI906
g698
sI907
g617
sI908
g1038
sI909
g257
sI910
g132
sI911
g755
sI912
g292
sI913
g822
sI914
g424
sI915
g743
sI916
g87
sI917
g70
sI918
g456
sI919
g619
sI920
g92
sI921
g820
sI922
g1048
sI923
g554
sI924
g792
sI925
g84
sI926
g652
sI927
g1043
sI928
g192
sI929
g317
sI930
g620
sI931
g668
sI932
g114
sI933
g912
sI934
g1052
sI935
g738
sI936
g406
sI937
g519
sI938
g457
sI939
g385
sI940
g730
sI941
g920
sI942
g653
sI943
g122
sI944
g869
sI945
g632
sI946
g497
sI947
g28
sI948
g397
sI949
g947
sI950
g965
sI951
g847
sI952
g259
sI953
g249
sI954
g340
sI955
g848
sI956
g823
sI957
g770
sI958
g779
sI959
g194
sI960
g893
sI961
g630
sI962
g809
sI963
g872
sI964
g844
sI965
g938
sI966
g360
sI967
g466
sI968
g452
sI969
g112
sI970
g735
sI971
g20
sI972
g765
sI973
g499
sI974
g865
sI975
g685
sI976
g1019
sI977
g198
sI978
g746
sI979
g284
sI980
g638
sI981
g671
sI982
g460
sI983
g887
sI984
g422
sI985
g694
sI986
g796
sI987
g445
sI988
g72
sI989
g778
sI990
g1022
sI991
g212
sI992
g680
sI993
g800
sI994
g915
sI995
g963
sI996
g482
sI997
g749
sI998
g786
sI999
g896
sI1000
g253
sI1001
g695
sI1002
g369
sI1003
g49
sI1004
g44
sI1005
g782
sI1006
g639
sI1007
g1037
sI1008
g569
sI1009
g437
sI1010
g484
sI1011
g980
sI1012
g837
sI1013
g82
sI1014
g555
sI1015
g933
sI1016
g726
sI1017
g264
sI1018
g732
sI1019
g707
sI1020
g946
sI1021
g199
sI1022
g505
sI1023
g345
sI1024
g10
sI1025
g578
sI1026
g4
sI1027
g1016
sI1028
g486
sI1029
g689
sI1030
g88
sI1031
g173
sI1032
g492
sI1033
g522
sI1034
g316
sI1035
g1010
sI1036
g34
sI1037
g98
sI1038
g478
sI1039
g1046
sI1040
g461
sI1041
g236
sI1042
g960
sI1043
g104
sI1044
g956
sI1045
g1040
sI1046
g704
sI1047
g352
sI1048
g476
sI1049
g1009
sI1050
g59
sI1051
g533
sI1052
g66
ssS'_name'
p1060
S'material'
p1061
sb.